Certificate:
    Data:
        Version: 3 (0x2)
        Serial Number: 0 (0x0)
    Signature Algorithm: sha256WithRSAEncryption
        Issuer: C=FR, ST=Some-State, O=Internet Widgits Pty Ltd
        Validity
            Not Before: Dec  1 13:24:46 2016 GMT
            Not After : Dec  1 13:24:46 2017 GMT
        Subject: C=FR, ST=Some-State, O=Internet Widgits Pty Ltd, CN=TP8
        Subject Public Key Info:
            Public Key Algorithm: rsaEncryption
                Public-Key: (4096 bit)
                Modulus:
                    00:b1:f4:5e:58:7c:6f:0a:a3:29:57:ea:72:82:aa:
                    91:6d:3d:35:44:9c:35:6a:43:b3:38:6b:4e:44:b7:
                    28:3e:0c:ed:5a:c7:26:66:c5:44:c6:33:50:54:75:
                    65:cc:a1:79:e7:7b:6b:68:97:29:40:4e:c9:8d:7b:
                    1d:5b:5c:34:4d:b9:86:d8:a5:1d:4a:de:0f:2b:75:
                    1a:46:d8:de:dc:3b:79:5a:c2:8a:8d:4a:e0:20:75:
                    4e:e3:93:2e:ac:b8:70:73:0f:17:d2:17:53:7d:4f:
                    a1:c2:73:3a:92:10:ed:9b:de:8b:9e:5a:ef:01:95:
                    ce:1e:dc:ec:2d:bb:61:41:ff:3b:12:a7:da:dd:ef:
                    26:b2:09:7d:ab:bc:92:8e:75:cf:2e:b8:0e:6f:b2:
                    dd:4a:26:c0:33:23:78:dc:cd:c0:9b:49:5a:d4:d4:
                    47:ee:b0:37:92:f3:15:96:69:f7:5a:c5:9e:12:0e:
                    ab:06:94:f5:25:ed:8c:60:af:d6:66:92:2b:d9:f2:
                    eb:52:98:16:58:8a:01:fc:17:a2:ec:6b:b9:9a:5f:
                    f5:56:8f:a2:3e:49:3d:36:15:5e:bc:4c:ab:43:ae:
                    76:6b:4a:a8:68:d5:a7:ba:8c:1a:ce:af:4f:97:c0:
                    cd:6f:56:1b:34:73:75:5d:ef:cd:0b:cc:43:6c:b4:
                    79:20:0b:55:e4:1f:70:5a:ac:b9:69:da:72:78:4c:
                    41:15:97:21:6f:47:77:c4:c7:60:64:78:fd:51:1e:
                    8b:9d:c9:f4:ef:2f:33:77:b0:dc:4d:8b:b7:58:70:
                    d9:59:df:fb:ab:d0:8e:dd:67:18:7e:5e:94:ef:70:
                    e7:a5:cb:8a:c4:25:c9:fc:ba:46:ed:13:83:9d:7f:
                    48:a8:0f:69:e6:28:26:b3:5a:12:f6:06:6a:36:43:
                    d4:df:59:a3:ea:9d:20:7c:ae:8b:b1:46:5b:25:e7:
                    11:77:c0:c7:37:5a:a4:eb:ad:65:ea:50:b1:25:8e:
                    20:43:b8:1e:45:21:aa:80:20:a3:7f:db:9b:93:ad:
                    01:86:9b:25:57:cb:98:d1:83:44:38:2f:2f:5d:12:
                    b7:f4:d0:15:19:f9:23:47:c0:93:35:d8:ff:fb:f9:
                    66:cb:93:57:57:91:66:53:ae:57:da:f0:3c:2c:75:
                    cf:e3:33:b5:9f:ac:45:49:16:63:d6:2e:4c:03:cf:
                    73:9b:d3:65:f5:ca:63:13:dc:04:48:3a:ca:ee:80:
                    47:1a:dd:0a:0a:81:1b:fc:36:f7:65:21:c0:f2:c6:
                    4d:b6:27:60:7f:2f:7d:52:7b:f7:b8:2f:61:55:6e:
                    50:00:e9:cc:e0:05:9c:65:41:ca:d4:16:8d:88:5b:
                    76:fa:d9
                Exponent: 65537 (0x10001)
        X509v3 extensions:
            X509v3 Basic Constraints: 
                CA:FALSE
            Netscape Comment: 
                OpenSSL Generated Certificate
            X509v3 Subject Key Identifier: 
                B1:82:12:F6:92:60:A9:98:55:25:1F:87:1E:6E:E7:7C:F7:57:65:F0
            X509v3 Authority Key Identifier: 
                keyid:AC:59:43:0A:49:F6:81:86:0A:1D:7F:40:F3:D2:E1:F1:14:DB:10:8F

    Signature Algorithm: sha256WithRSAEncryption
         26:fc:fa:aa:ca:77:fa:40:25:27:08:af:3e:1f:98:a5:1f:69:
         52:33:d9:66:d9:b9:c9:db:dc:16:b9:eb:52:68:d4:51:ee:60:
         34:c9:d3:f7:bc:d0:66:58:71:5d:20:15:e3:d2:d1:5a:06:a5:
         26:28:89:88:cf:06:9f:1c:f2:d3:3f:ef:fa:de:73:d5:00:8a:
         9d:1c:24:de:16:c9:e3:90:64:f5:71:4f:bf:2a:7a:7d:b0:4a:
         32:2d:97:13:18:fb:36:e7:a9:24:b0:57:60:9e:e6:d6:a7:58:
         31:74:33:69:56:71:94:4c:17:34:09:d9:69:e9:66:e7:75:c0:
         05:73:40:05:0d:ac:49:c9:df:10:3c:4e:39:0b:80:d7:2e:ec:
         3a:73:31:da:ed:1a:a2:39:4a:eb:7e:e0:13:ad:ce:06:8e:ba:
         80:8d:04:36:d2:fb:ba:22:c8:aa:c4:54:b3:31:1d:e6:ba:d0:
         be:aa:34:fd:00:bf:5c:27:a1:6e:d7:cd:17:9f:9d:62:2b:19:
         23:98:57:99:7d:5c:cd:ea:14:cd:e6:14:46:12:01:33:f3:01:
         bd:9a:dc:f1:2f:17:92:6b:26:42:17:09:f7:79:e7:11:13:99:
         0e:3c:db:e1:42:a2:cb:44:d3:04:4c:14:fa:f0:b4:f0:5e:33:
         59:ac:42:b1:3d:c2:65:f3:a1:75:75:e9:72:5d:bb:ed:09:75:
         a3:cf:88:82:5a:4a:28:ca:46:c6:48:35:24:16:93:a9:bf:e2:
         06:00:50:44:b9:51:6a:a9:d6:60:e8:87:f2:3a:41:7f:e3:02:
         29:14:bb:70:93:75:b9:3c:83:64:94:c7:a9:48:2a:7c:b3:b1:
         9e:0b:72:47:2f:ea:48:db:bf:43:63:42:a3:5c:4e:04:d4:05:
         98:2c:ee:29:9b:76:25:95:11:d0:f1:42:c7:22:bf:35:ae:c9:
         70:88:59:cc:12:21:4a:e4:bb:3e:c5:d9:09:d1:b7:cc:10:5b:
         72:64:55:f2:b1:28:7a:ef:21:88:ea:ec:cf:7c:cc:06:de:e7:
         92:bc:e8:d2:24:fb:ab:20:f7:a3:b6:6a:dd:18:1c:24:69:0d:
         94:d1:aa:6d:39:4b:aa:97:de:f8:0d:58:84:74:96:ea:1e:f3:
         4c:34:e8:89:73:bf:83:52:ca:97:59:50:6d:24:6d:81:8d:80:
         b3:28:c6:aa:d4:7b:84:f5:b3:c9:de:fc:ff:04:66:33:f4:65:
         48:f5:ec:f4:24:a6:66:54:d4:a9:be:07:4e:ba:9d:54:46:05:
         18:08:34:11:9f:97:04:57:d6:ca:0e:8a:91:ae:de:b0:f0:85:
         a4:01:70:5c:f3:b2:7e:2f
-----BEGIN CERTIFICATE-----
MIIFjjCCA3agAwIBAgIBADANBgkqhkiG9w0BAQsFADBFMQswCQYDVQQGEwJGUjET
MBEGA1UECAwKU29tZS1TdGF0ZTEhMB8GA1UECgwYSW50ZXJuZXQgV2lkZ2l0cyBQ
dHkgTHRkMB4XDTE2MTIwMTEzMjQ0NloXDTE3MTIwMTEzMjQ0NlowUzELMAkGA1UE
BhMCRlIxEzARBgNVBAgMClNvbWUtU3RhdGUxITAfBgNVBAoMGEludGVybmV0IFdp
ZGdpdHMgUHR5IEx0ZDEMMAoGA1UEAwwDVFA4MIICIjANBgkqhkiG9w0BAQEFAAOC
Ag8AMIICCgKCAgEAsfReWHxvCqMpV+pygqqRbT01RJw1akOzOGtORLcoPgztWscm
ZsVExjNQVHVlzKF553traJcpQE7JjXsdW1w0TbmG2KUdSt4PK3UaRtje3Dt5WsKK
jUrgIHVO45MurLhwcw8X0hdTfU+hwnM6khDtm96LnlrvAZXOHtzsLbthQf87Eqfa
3e8msgl9q7ySjnXPLrgOb7LdSibAMyN43M3Am0la1NRH7rA3kvMVlmn3WsWeEg6r
BpT1Je2MYK/WZpIr2fLrUpgWWIoB/Bei7Gu5ml/1Vo+iPkk9NhVevEyrQ652a0qo
aNWnuowazq9Pl8DNb1YbNHN1Xe/NC8xDbLR5IAtV5B9wWqy5adpyeExBFZchb0d3
xMdgZHj9UR6Lncn07y8zd7DcTYu3WHDZWd/7q9CO3WcYfl6U73DnpcuKxCXJ/LpG
7RODnX9IqA9p5igms1oS9gZqNkPU31mj6p0gfK6LsUZbJecRd8DHN1qk661l6lCx
JY4gQ7geRSGqgCCjf9ubk60BhpslV8uY0YNEOC8vXRK39NAVGfkjR8CTNdj/+/lm
y5NXV5FmU65X2vA8LHXP4zO1n6xFSRZj1i5MA89zm9Nl9cpjE9wESDrK7oBHGt0K
CoEb/Db3ZSHA8sZNtidgfy99Unv3uC9hVW5QAOnM4AWcZUHK1BaNiFt2+tkCAwEA
AaN7MHkwCQYDVR0TBAIwADAsBglghkgBhvhCAQ0EHxYdT3BlblNTTCBHZW5lcmF0
ZWQgQ2VydGlmaWNhdGUwHQYDVR0OBBYEFLGCEvaSYKmYVSUfhx5u53z3V2XwMB8G
A1UdIwQYMBaAFKxZQwpJ9oGGCh1/QPPS4fEU2xCPMA0GCSqGSIb3DQEBCwUAA4IC
AQAm/Pqqynf6QCUnCK8+H5ilH2lSM9lm2bnJ29wWuetSaNRR7mA0ydP3vNBmWHFd
IBXj0tFaBqUmKImIzwafHPLTP+/63nPVAIqdHCTeFsnjkGT1cU+/Knp9sEoyLZcT
GPs256kksFdgnubWp1gxdDNpVnGUTBc0Cdlp6WbndcAFc0AFDaxJyd8QPE45C4DX
Luw6czHa7RqiOUrrfuATrc4GjrqAjQQ20vu6IsiqxFSzMR3mutC+qjT9AL9cJ6Fu
180Xn51iKxkjmFeZfVzN6hTN5hRGEgEz8wG9mtzxLxeSayZCFwn3eecRE5kOPNvh
QqLLRNMETBT68LTwXjNZrEKxPcJl86F1delyXbvtCXWjz4iCWkooykbGSDUkFpOp
v+IGAFBEuVFqqdZg6IfyOkF/4wIpFLtwk3W5PINklMepSCp8s7GeC3JHL+pI279D
Y0KjXE4E1AWYLO4pm3YllRHQ8ULHIr81rslwiFnMEiFK5Ls+xdkJ0bfMEFtyZFXy
sSh67yGI6uzPfMwG3ueSvOjSJPurIPejtmrdGBwkaQ2U0aptOUuql974DViEdJbq
HvNMNOiJc7+DUsqXWVBtJG2BjYCzKMaq1HuE9bPJ3vz/BGYz9GVI9ez0JKZmVNSp
vgdOup1URgUYCDQRn5cEV9bKDoqRrt6w8IWkAXBc87J+Lw==
-----END CERTIFICATE-----
