Certificate:
    Data:
        Version: 3 (0x2)
        Serial Number: 1 (0x1)
    Signature Algorithm: sha256WithRSAEncryption
        Issuer: C=FR, ST=Some-State, O=Internet Widgits Pty Ltd
        Validity
            Not Before: Dec  1 14:02:59 2016 GMT
            Not After : Dec  1 14:02:59 2017 GMT
        Subject: C=FR, ST=Some-State, O=Internet Widgits Pty Ltd, CN=TP8Suite
        Subject Public Key Info:
            Public Key Algorithm: rsaEncryption
                Public-Key: (4096 bit)
                Modulus:
                    00:cf:02:70:db:73:91:5d:21:e8:9d:67:73:2e:eb:
                    37:1b:52:c5:df:30:e2:5c:94:57:90:27:bd:7d:42:
                    2a:4a:94:26:74:50:38:21:de:d7:75:15:fb:93:ac:
                    51:b1:1d:2a:b6:72:49:75:56:f5:84:64:a4:85:dc:
                    16:47:f6:05:78:b2:71:b7:e8:48:26:76:c5:87:a5:
                    1e:66:9e:cd:82:bc:e4:25:7e:d5:d6:0a:f0:7d:c0:
                    c4:a6:72:bd:88:36:7d:34:9e:c5:ce:b3:1c:13:b5:
                    b5:8e:f6:88:cd:80:43:8f:ce:37:0e:29:3e:1f:78:
                    f7:b6:3c:60:29:1e:e1:ff:65:44:02:97:94:9c:e3:
                    da:60:1f:c0:df:cc:56:6d:7e:37:95:5d:c3:7b:39:
                    25:6b:ae:5e:1c:dd:f3:b0:45:6b:dd:ea:85:74:76:
                    5a:54:4d:df:bf:ce:2c:b6:9d:d1:0c:4c:d6:54:0c:
                    20:f3:52:a1:04:95:88:a9:71:80:86:0b:2f:45:55:
                    c6:58:8b:15:ba:71:ec:ae:fa:36:1b:19:de:fc:59:
                    a5:ef:84:e0:70:99:c7:c5:3e:62:61:25:ce:7c:15:
                    e6:35:67:73:37:44:69:0c:10:66:53:60:b4:df:49:
                    4c:b4:8d:ae:df:5b:4d:db:2b:f4:4b:95:0f:18:e0:
                    fe:e6:13:99:ee:b2:b9:66:53:9c:c3:5e:44:5b:d7:
                    9e:8e:58:55:66:69:43:f9:cd:66:12:45:fb:f6:a5:
                    8a:c7:56:11:50:ad:c5:4f:42:99:12:ed:7f:e0:c6:
                    ad:6d:d6:5c:e0:28:3b:a6:c5:6a:10:91:80:91:4b:
                    a6:1b:7f:55:80:34:db:5d:5a:22:83:fc:f0:2d:90:
                    e3:00:cf:47:3e:65:2d:f1:9d:18:d4:c7:ea:4d:98:
                    42:aa:7f:77:cc:e2:d4:54:cf:dd:dd:76:ac:7f:b9:
                    45:82:43:c1:ac:28:d2:3b:58:c8:33:ff:c3:05:05:
                    82:77:9c:8a:df:f4:8e:36:20:ab:92:13:7d:68:2f:
                    d8:15:f8:4e:f5:1d:ac:13:6e:fc:ec:38:a0:a2:e0:
                    08:a1:5a:be:bc:e4:c1:1d:7c:21:32:a3:bf:87:3b:
                    88:37:ae:fe:b9:b1:ef:b2:ad:6f:37:a7:99:88:03:
                    07:2b:2b:73:74:f6:80:30:7b:ba:70:17:66:4e:10:
                    dc:0f:fd:79:07:85:ba:89:43:d4:7d:3b:72:f0:08:
                    f0:3c:72:26:f0:64:20:17:21:e2:56:46:d1:08:ea:
                    62:7a:bc:21:c3:0e:10:0b:1c:98:e7:4f:35:78:b3:
                    d6:e9:e7:d3:84:02:02:34:c0:43:32:04:bf:63:61:
                    e4:aa:f5
                Exponent: 65537 (0x10001)
        X509v3 extensions:
            X509v3 Basic Constraints: 
                CA:FALSE
            Netscape Comment: 
                OpenSSL Generated Certificate
            X509v3 Subject Key Identifier: 
                BE:36:05:BC:18:00:A4:18:0A:F5:85:83:7B:D6:29:45:D6:85:E5:4F
            X509v3 Authority Key Identifier: 
                keyid:AC:59:43:0A:49:F6:81:86:0A:1D:7F:40:F3:D2:E1:F1:14:DB:10:8F

    Signature Algorithm: sha256WithRSAEncryption
         4c:12:ab:99:cf:48:fc:6c:23:fd:7c:1c:12:9d:13:b9:0f:be:
         72:e8:fa:4b:37:3a:4d:ce:c6:4f:3b:18:db:b2:f1:d5:cc:38:
         70:21:d2:d6:3f:93:60:9e:6f:d3:13:6e:ef:43:af:eb:16:fd:
         4c:40:87:be:7f:7e:de:fd:5d:9a:76:05:a2:c0:35:9c:cc:00:
         15:bd:c8:92:87:07:dd:f4:ae:b8:4e:bd:16:35:3b:25:2f:3d:
         7c:72:d4:3a:96:03:2c:8b:0e:46:44:08:79:db:52:6d:a2:17:
         76:d7:9c:99:df:b7:8c:15:f3:6e:a0:2a:13:38:30:6c:e2:d1:
         5f:16:12:e4:59:17:28:7e:70:0c:53:d0:3a:80:ed:7b:eb:fc:
         68:29:73:33:5a:50:56:9f:e8:f2:d8:5e:6f:c5:ff:b3:d3:da:
         9d:ca:29:9c:fd:9d:bb:a7:68:af:3d:3e:d4:1e:14:35:a7:02:
         ad:ca:97:f8:04:0c:e2:f1:a8:ab:cd:fa:fc:e8:86:14:18:a9:
         98:14:5f:30:a4:a6:57:c0:75:68:b5:8b:d1:97:42:5d:bf:50:
         7c:dd:60:9c:24:a7:ce:94:5f:69:e6:9e:d8:48:cd:e4:bd:0d:
         39:40:e5:9a:bb:08:81:41:8b:a9:30:0c:15:26:df:37:65:ad:
         ca:3e:86:f3:c9:c9:a0:ae:71:fd:0e:6a:dd:2a:f6:7f:63:bf:
         7e:4c:8b:0a:c9:6a:35:ee:74:10:2e:69:4f:bb:b3:e8:02:13:
         34:8e:d9:d1:be:f4:54:68:e8:ff:07:ff:86:e8:bc:69:7a:2f:
         b8:2d:b6:79:0a:be:95:ea:05:93:05:69:ee:ac:bf:6a:45:f6:
         59:8d:fc:cc:7b:2c:43:24:f2:99:7d:d4:9f:9a:53:e7:0b:55:
         19:81:41:77:e1:f1:71:d8:2f:f4:37:56:85:38:72:4b:c3:14:
         1d:83:18:f4:8a:63:fc:11:53:f3:de:0f:06:66:18:e3:a9:45:
         98:cb:23:7f:95:55:f4:ca:fa:29:e6:55:67:50:0c:fe:3f:a8:
         42:88:45:59:b9:2e:a5:6e:d5:c1:35:15:68:bf:f9:54:b4:43:
         43:dd:ac:0d:bd:45:41:57:48:74:f7:9f:6f:2c:14:78:6c:5e:
         15:45:5b:cc:aa:e2:bd:fc:af:85:0d:99:30:ab:e6:22:bb:7a:
         41:29:26:df:c5:7a:b7:6e:fe:f5:bd:12:c6:6a:85:69:b6:87:
         13:f0:fa:a3:19:da:bb:ae:23:87:ea:5b:b7:d7:d6:da:4d:31:
         d1:ff:1b:1d:d5:2e:e2:36:63:b8:68:67:6a:85:c8:db:e6:79:
         e7:4b:58:fe:7e:1a:f4:12
-----BEGIN CERTIFICATE-----
MIIFkzCCA3ugAwIBAgIBATANBgkqhkiG9w0BAQsFADBFMQswCQYDVQQGEwJGUjET
MBEGA1UECAwKU29tZS1TdGF0ZTEhMB8GA1UECgwYSW50ZXJuZXQgV2lkZ2l0cyBQ
dHkgTHRkMB4XDTE2MTIwMTE0MDI1OVoXDTE3MTIwMTE0MDI1OVowWDELMAkGA1UE
BhMCRlIxEzARBgNVBAgMClNvbWUtU3RhdGUxITAfBgNVBAoMGEludGVybmV0IFdp
ZGdpdHMgUHR5IEx0ZDERMA8GA1UEAwwIVFA4U3VpdGUwggIiMA0GCSqGSIb3DQEB
AQUAA4ICDwAwggIKAoICAQDPAnDbc5FdIeidZ3Mu6zcbUsXfMOJclFeQJ719QipK
lCZ0UDgh3td1FfuTrFGxHSq2ckl1VvWEZKSF3BZH9gV4snG36EgmdsWHpR5mns2C
vOQlftXWCvB9wMSmcr2INn00nsXOsxwTtbWO9ojNgEOPzjcOKT4fePe2PGApHuH/
ZUQCl5Sc49pgH8DfzFZtfjeVXcN7OSVrrl4c3fOwRWvd6oV0dlpUTd+/ziy2ndEM
TNZUDCDzUqEElYipcYCGCy9FVcZYixW6ceyu+jYbGd78WaXvhOBwmcfFPmJhJc58
FeY1Z3M3RGkMEGZTYLTfSUy0ja7fW03bK/RLlQ8Y4P7mE5nusrlmU5zDXkRb156O
WFVmaUP5zWYSRfv2pYrHVhFQrcVPQpkS7X/gxq1t1lzgKDumxWoQkYCRS6Ybf1WA
NNtdWiKD/PAtkOMAz0c+ZS3xnRjUx+pNmEKqf3fM4tRUz93ddqx/uUWCQ8GsKNI7
WMgz/8MFBYJ3nIrf9I42IKuSE31oL9gV+E71HawTbvzsOKCi4AihWr685MEdfCEy
o7+HO4g3rv65se+yrW83p5mIAwcrK3N09oAwe7pwF2ZOENwP/XkHhbqJQ9R9O3Lw
CPA8cibwZCAXIeJWRtEI6mJ6vCHDDhALHJjnTzV4s9bp59OEAgI0wEMyBL9jYeSq
9QIDAQABo3sweTAJBgNVHRMEAjAAMCwGCWCGSAGG+EIBDQQfFh1PcGVuU1NMIEdl
bmVyYXRlZCBDZXJ0aWZpY2F0ZTAdBgNVHQ4EFgQUvjYFvBgApBgK9YWDe9YpRdaF
5U8wHwYDVR0jBBgwFoAUrFlDCkn2gYYKHX9A89Lh8RTbEI8wDQYJKoZIhvcNAQEL
BQADggIBAEwSq5nPSPxsI/18HBKdE7kPvnLo+ks3Ok3Oxk87GNuy8dXMOHAh0tY/
k2Ceb9MTbu9Dr+sW/UxAh75/ft79XZp2BaLANZzMABW9yJKHB930rrhOvRY1OyUv
PXxy1DqWAyyLDkZECHnbUm2iF3bXnJnft4wV826gKhM4MGzi0V8WEuRZFyh+cAxT
0DqA7Xvr/GgpczNaUFaf6PLYXm/F/7PT2p3KKZz9nbunaK89PtQeFDWnAq3Kl/gE
DOLxqKvN+vzohhQYqZgUXzCkplfAdWi1i9GXQl2/UHzdYJwkp86UX2nmnthIzeS9
DTlA5Zq7CIFBi6kwDBUm3zdlrco+hvPJyaCucf0Oat0q9n9jv35MiwrJajXudBAu
aU+7s+gCEzSO2dG+9FRo6P8H/4bovGl6L7gttnkKvpXqBZMFae6sv2pF9lmN/Mx7
LEMk8pl91J+aU+cLVRmBQXfh8XHYL/Q3VoU4ckvDFB2DGPSKY/wRU/PeDwZmGOOp
RZjLI3+VVfTK+inmVWdQDP4/qEKIRVm5LqVu1cE1FWi/+VS0Q0PdrA29RUFXSHT3
n28sFHhsXhVFW8yq4r38r4UNmTCr5iK7ekEpJt/Ferdu/vW9EsZqhWm2hxPw+qMZ
2ruuI4fqW7fX1tpNMdH/Gx3VLuI2Y7hoZ2qFyNvmeedLWP5+GvQS
-----END CERTIFICATE-----
