Certificate:
    Data:
        Version: 3 (0x2)
        Serial Number: 2 (0x2)
    Signature Algorithm: sha256WithRSAEncryption
        Issuer: C=FR, ST=Some-State, O=Internet Widgits Pty Ltd
        Validity
            Not Before: Dec  1 14:49:45 2016 GMT
            Not After : Dec  1 14:49:45 2017 GMT
        Subject: C=FR, ST=Some-State, O=Internet Widgits Pty Ltd, CN=Localhost
        Subject Public Key Info:
            Public Key Algorithm: rsaEncryption
                Public-Key: (4096 bit)
                Modulus:
                    00:e4:39:ef:3a:d0:0f:3a:01:0c:96:15:b2:95:54:
                    e9:24:ba:4d:77:7e:8d:7b:ed:4c:43:6d:b6:87:06:
                    64:f8:78:9a:ec:0f:4d:d8:86:15:5d:55:14:da:86:
                    87:8d:31:af:9c:db:35:9b:ab:7a:1f:cf:b6:ed:6f:
                    72:ef:4d:86:c6:f4:5d:26:01:20:0e:51:45:1e:37:
                    8e:14:93:1d:26:69:8a:a0:e3:29:1b:e2:2e:b7:54:
                    73:c0:37:e1:ac:4c:4d:99:b6:1e:d6:71:9c:71:d9:
                    57:85:04:b4:5d:19:68:91:af:db:63:81:d3:72:40:
                    70:b5:13:2d:e8:8c:1b:b6:66:04:f0:98:2a:f4:da:
                    4f:47:f2:5b:7b:eb:e4:86:3b:c8:0b:9c:38:44:ef:
                    b2:2e:a8:86:ca:98:6b:90:40:ee:5d:e7:0e:2a:7e:
                    e9:3c:74:57:b8:64:82:bf:2d:cf:ae:94:7c:1d:61:
                    9f:b0:d5:b7:87:fb:5c:a4:e3:fe:fb:67:94:33:c6:
                    a6:21:b2:5a:fa:e3:35:db:d5:5b:41:61:15:63:43:
                    8e:ea:54:72:bb:f5:92:e9:5f:db:d8:59:26:49:74:
                    f1:d0:b9:d3:2b:f6:a4:80:34:c9:b8:73:25:24:a9:
                    f4:5c:b2:ee:58:76:72:6b:12:e4:aa:ae:d4:08:85:
                    cc:37:08:7e:b4:f4:29:d0:0a:e6:10:20:a0:90:c0:
                    94:45:72:56:5f:9f:22:3e:77:39:6b:0a:df:de:d7:
                    c6:aa:5b:96:43:06:59:3b:29:54:3f:98:3c:6a:1f:
                    ca:37:f1:a7:8c:52:f6:78:ca:f8:17:6d:66:eb:67:
                    ef:28:da:4c:0d:63:f8:68:b1:9a:8e:ed:02:57:3a:
                    7d:78:ed:a3:ab:c7:dc:28:d6:18:ca:42:37:b5:b0:
                    17:57:d1:10:8c:36:ec:18:aa:86:93:f6:1b:f7:6b:
                    ee:c2:25:9d:71:41:6d:92:43:a3:6b:c8:7c:5b:10:
                    b9:9a:f9:3a:b6:c6:1f:a2:5c:48:29:53:e7:70:9f:
                    3f:d8:0f:83:f8:c1:fd:93:6a:ad:34:30:40:7f:08:
                    a6:af:83:6d:ce:be:ed:66:e4:67:c2:ce:ba:2d:5c:
                    55:0d:9f:ef:4d:fe:05:c8:54:b7:8b:51:ca:e8:f5:
                    c4:89:e4:8b:4f:66:ad:e7:65:c8:45:25:de:46:54:
                    f2:eb:a0:12:32:20:f5:f1:fc:b0:2a:73:1c:c4:70:
                    f0:33:84:23:7b:31:84:e7:90:58:0b:aa:64:84:09:
                    1e:ab:b8:42:7c:b9:1b:8a:61:d3:ed:89:ac:d4:ab:
                    b1:7e:1b:12:84:c9:33:49:b3:45:af:49:ca:f3:78:
                    33:1d:39
                Exponent: 65537 (0x10001)
        X509v3 extensions:
            X509v3 Basic Constraints: 
                CA:FALSE
            Netscape Comment: 
                OpenSSL Generated Certificate
            X509v3 Subject Key Identifier: 
                11:22:2E:EE:80:42:D8:23:0B:55:64:29:CF:E8:FC:17:98:A7:0C:30
            X509v3 Authority Key Identifier: 
                keyid:AC:59:43:0A:49:F6:81:86:0A:1D:7F:40:F3:D2:E1:F1:14:DB:10:8F

    Signature Algorithm: sha256WithRSAEncryption
         ab:53:5a:a2:a1:af:a5:ba:8c:a9:8a:6d:3e:9e:35:d2:2c:38:
         e6:aa:e4:da:98:11:92:5a:1b:76:ff:68:26:4b:ab:e1:86:9d:
         57:3a:a7:25:35:ab:8f:5a:17:f3:a5:9b:a2:33:3e:28:e2:70:
         29:13:10:79:02:a2:fe:12:2f:ea:58:3d:c0:6b:d6:c4:95:2c:
         bd:51:f5:e8:17:e8:15:13:03:e3:07:d5:87:3a:9c:ec:0e:70:
         bc:c7:a7:e0:06:f0:d1:da:d5:ae:75:bc:19:02:2d:83:63:6c:
         0c:25:78:c3:54:38:c3:75:0c:bd:84:ba:46:74:34:b5:0c:c7:
         bb:13:39:2f:c1:af:51:f0:16:ac:4c:c2:c4:f6:18:6b:e1:49:
         4a:15:18:4c:ba:1e:63:cc:1a:40:f9:0d:e1:d2:3a:c8:a7:07:
         02:cf:27:03:d4:62:2f:f5:9d:dd:d1:3e:74:16:bf:89:af:48:
         d5:87:f5:6c:49:83:91:49:44:2f:d6:63:f3:1d:f9:a5:14:04:
         9b:29:e9:86:b5:ed:5f:c0:dd:ad:5d:11:9a:a5:a8:30:2e:79:
         10:39:fa:4c:c9:5a:9f:da:c1:00:d1:a0:c6:09:ff:c2:84:a3:
         01:59:22:0b:67:60:96:9b:14:0e:39:cc:f2:33:4b:49:f1:18:
         d1:3e:05:6e:79:0e:a1:ca:60:a6:31:1e:08:bd:c5:59:8e:6a:
         d8:43:42:f3:4c:ef:bb:ac:5b:de:a3:5c:fa:20:d1:b8:98:17:
         3d:e0:9b:99:aa:83:f5:50:45:9d:10:fa:5e:40:62:ff:f2:ca:
         d9:c1:99:69:4b:fa:a6:52:f9:cb:43:0f:f6:24:e3:0a:4d:b7:
         a1:94:29:d3:6c:a2:7e:89:9c:a7:31:65:9e:76:f0:63:ba:46:
         1c:f5:82:53:88:17:83:39:a9:8e:d8:d9:b7:2c:e8:4e:55:66:
         21:3d:aa:dc:78:11:9a:f2:ab:18:d8:43:78:28:12:78:3d:8f:
         7f:39:70:5b:e9:cc:58:be:4f:ff:55:8a:80:16:41:97:d7:26:
         77:ec:d0:df:9c:23:74:5f:88:87:11:e5:2d:8a:86:29:94:7a:
         ea:5b:a1:a0:57:48:5c:ff:87:9b:9d:3d:50:b5:e7:c5:53:36:
         34:43:cd:6b:44:68:48:a6:16:ce:76:4b:62:d8:41:6c:77:6e:
         c4:34:6f:89:b4:5d:06:99:c1:c5:0c:3d:ef:a9:f2:6f:a5:69:
         83:16:2b:b6:2e:6f:b9:7f:92:86:27:2a:ee:9e:4d:04:65:72:
         bc:46:d8:f9:1b:93:ba:27:8a:cc:2c:0c:06:b9:22:80:2a:b1:
         eb:95:9c:aa:70:25:f2:78
-----BEGIN CERTIFICATE-----
MIIFlDCCA3ygAwIBAgIBAjANBgkqhkiG9w0BAQsFADBFMQswCQYDVQQGEwJGUjET
MBEGA1UECAwKU29tZS1TdGF0ZTEhMB8GA1UECgwYSW50ZXJuZXQgV2lkZ2l0cyBQ
dHkgTHRkMB4XDTE2MTIwMTE0NDk0NVoXDTE3MTIwMTE0NDk0NVowWTELMAkGA1UE
BhMCRlIxEzARBgNVBAgMClNvbWUtU3RhdGUxITAfBgNVBAoMGEludGVybmV0IFdp
ZGdpdHMgUHR5IEx0ZDESMBAGA1UEAwwJTG9jYWxob3N0MIICIjANBgkqhkiG9w0B
AQEFAAOCAg8AMIICCgKCAgEA5DnvOtAPOgEMlhWylVTpJLpNd36Ne+1MQ222hwZk
+Hia7A9N2IYVXVUU2oaHjTGvnNs1m6t6H8+27W9y702GxvRdJgEgDlFFHjeOFJMd
JmmKoOMpG+Iut1RzwDfhrExNmbYe1nGccdlXhQS0XRloka/bY4HTckBwtRMt6Iwb
tmYE8Jgq9NpPR/Jbe+vkhjvIC5w4RO+yLqiGyphrkEDuXecOKn7pPHRXuGSCvy3P
rpR8HWGfsNW3h/tcpOP++2eUM8amIbJa+uM129VbQWEVY0OO6lRyu/WS6V/b2Fkm
SXTx0LnTK/akgDTJuHMlJKn0XLLuWHZyaxLkqq7UCIXMNwh+tPQp0ArmECCgkMCU
RXJWX58iPnc5awrf3tfGqluWQwZZOylUP5g8ah/KN/GnjFL2eMr4F21m62fvKNpM
DWP4aLGaju0CVzp9eO2jq8fcKNYYykI3tbAXV9EQjDbsGKqGk/Yb92vuwiWdcUFt
kkOja8h8WxC5mvk6tsYfolxIKVPncJ8/2A+D+MH9k2qtNDBAfwimr4Ntzr7tZuRn
ws66LVxVDZ/vTf4FyFS3i1HK6PXEieSLT2at52XIRSXeRlTy66ASMiD18fywKnMc
xHDwM4QjezGE55BYC6pkhAkeq7hCfLkbimHT7Yms1KuxfhsShMkzSbNFr0nK83gz
HTkCAwEAAaN7MHkwCQYDVR0TBAIwADAsBglghkgBhvhCAQ0EHxYdT3BlblNTTCBH
ZW5lcmF0ZWQgQ2VydGlmaWNhdGUwHQYDVR0OBBYEFBEiLu6AQtgjC1VkKc/o/BeY
pwwwMB8GA1UdIwQYMBaAFKxZQwpJ9oGGCh1/QPPS4fEU2xCPMA0GCSqGSIb3DQEB
CwUAA4ICAQCrU1qioa+luoypim0+njXSLDjmquTamBGSWht2/2gmS6vhhp1XOqcl
NauPWhfzpZuiMz4o4nApExB5AqL+Ei/qWD3Aa9bElSy9UfXoF+gVEwPjB9WHOpzs
DnC8x6fgBvDR2tWudbwZAi2DY2wMJXjDVDjDdQy9hLpGdDS1DMe7Ezkvwa9R8Bas
TMLE9hhr4UlKFRhMuh5jzBpA+Q3h0jrIpwcCzycD1GIv9Z3d0T50Fr+Jr0jVh/Vs
SYORSUQv1mPzHfmlFASbKemGte1fwN2tXRGapagwLnkQOfpMyVqf2sEA0aDGCf/C
hKMBWSILZ2CWmxQOOczyM0tJ8RjRPgVueQ6hymCmMR4IvcVZjmrYQ0LzTO+7rFve
o1z6ING4mBc94JuZqoP1UEWdEPpeQGL/8srZwZlpS/qmUvnLQw/2JOMKTbehlCnT
bKJ+iZynMWWedvBjukYc9YJTiBeDOamO2Nm3LOhOVWYhParceBGa8qsY2EN4KBJ4
PY9/OXBb6cxYvk//VYqAFkGX1yZ37NDfnCN0X4iHEeUtioYplHrqW6GgV0hc/4eb
nT1QtefFUzY0Q81rRGhIphbOdkti2EFsd27ENG+JtF0GmcHFDD3vqfJvpWmDFiu2
Lm+5f5KGJyrunk0EZXK8Rtj5G5O6J4rMLAwGuSKAKrHrlZyqcCXyeA==
-----END CERTIFICATE-----
